target datalayout = "e-m:e-p270:32:32-p271:32:32-p272:64:64-i64:64-i128:128-f80:128-n8:16:32:64-S128"
target triple = "x86_64-pc-linux-gnu"

%struct.pointf_s = type { double, double }

; Function Attrs: nounwind uwtable
define internal { double, double } @arrow_type_normal(ptr noundef %0, double %1, double %2, double %3, double %4, double noundef %5, double noundef %6, i32 noundef %7) #0 {
  %9 = alloca %struct.pointf_s, align 8
  %10 = alloca %struct.pointf_s, align 8
  %11 = alloca %struct.pointf_s, align 8
  %12 = alloca ptr, align 8
  %13 = alloca double, align 8
  %14 = alloca double, align 8
  %15 = alloca i32, align 4
  %16 = alloca [5 x %struct.pointf_s], align 16
  %17 = getelementptr inbounds nuw { double, double }, ptr %10, i32 0, i32 0
  store double %1, ptr %17, align 8
  %18 = getelementptr inbounds nuw { double, double }, ptr %10, i32 0, i32 1
  store double %2, ptr %18, align 8
  %19 = getelementptr inbounds nuw { double, double }, ptr %11, i32 0, i32 0
  store double %3, ptr %19, align 8
  %20 = getelementptr inbounds nuw { double, double }, ptr %11, i32 0, i32 1
  store double %4, ptr %20, align 8
  store ptr %0, ptr %12, align 8, !tbaa !73
  store double %5, ptr %13, align 8, !tbaa !53
  store double %6, ptr %14, align 8, !tbaa !53
  store i32 %7, ptr %15, align 4, !tbaa !10
  call void @llvm.lifetime.start.p0(i64 80, ptr %16) #9
  %21 = load double, ptr %14, align 8, !tbaa !53
  %22 = load i32, ptr %15, align 4, !tbaa !10
  %23 = getelementptr inbounds [5 x %struct.pointf_s], ptr %16, i64 0, i64 0
  %24 = getelementptr inbounds nuw { double, double }, ptr %10, i32 0, i32 0
  %25 = load double, ptr %24, align 8
  %26 = getelementptr inbounds nuw { double, double }, ptr %10, i32 0, i32 1
  %27 = load double, ptr %26, align 8
  %28 = getelementptr inbounds nuw { double, double }, ptr %11, i32 0, i32 0
  %29 = load double, ptr %28, align 8
  %30 = getelementptr inbounds nuw { double, double }, ptr %11, i32 0, i32 1
  %31 = load double, ptr %30, align 8
  %32 = call { double, double } @arrow_type_normal0(double %25, double %27, double %29, double %31, double noundef %21, i32 noundef %22, ptr noundef %23)
  %33 = getelementptr inbounds nuw { double, double }, ptr %9, i32 0, i32 0
  %34 = extractvalue { double, double } %32, 0
  store double %34, ptr %33, align 8
  %35 = getelementptr inbounds nuw { double, double }, ptr %9, i32 0, i32 1
  %36 = extractvalue { double, double } %32, 1
  store double %36, ptr %35, align 8
  %37 = load i32, ptr %15, align 4, !tbaa !10
  %38 = and i32 %37, 64
  %39 = icmp ne i32 %38, 0
  br i1 %39, label %40, label %48

40:                                               ; preds = %8
  %41 = load ptr, ptr %12, align 8, !tbaa !73
  %42 = getelementptr inbounds [5 x %struct.pointf_s], ptr %16, i64 0, i64 0
  %43 = load i32, ptr %15, align 4, !tbaa !10
  %44 = and i32 %43, 16
  %45 = icmp ne i32 %44, 0
  %46 = xor i1 %45, true
  %47 = zext i1 %46 to i32
  call void @gvrender_polygon(ptr noundef %41, ptr noundef %42, i64 noundef 3, i32 noundef %47)
  br label %69

48:                                               ; preds = %8
  %49 = load i32, ptr %15, align 4, !tbaa !10
  %50 = and i32 %49, 128
  %51 = icmp ne i32 %50, 0
  br i1 %51, label %52, label %60

52:                                               ; preds = %48
  %53 = load ptr, ptr %12, align 8, !tbaa !73
  %54 = getelementptr inbounds [5 x %struct.pointf_s], ptr %16, i64 0, i64 2
  %55 = load i32, ptr %15, align 4, !tbaa !10
  %56 = and i32 %55, 16
  %57 = icmp ne i32 %56, 0
  %58 = xor i1 %57, true
  %59 = zext i1 %58 to i32
  call void @gvrender_polygon(ptr noundef %53, ptr noundef %54, i64 noundef 3, i32 noundef %59)
  br label %68

60:                                               ; preds = %48
  %61 = load ptr, ptr %12, align 8, !tbaa !73
  %62 = getelementptr inbounds [5 x %struct.pointf_s], ptr %16, i64 0, i64 1
  %63 = load i32, ptr %15, align 4, !tbaa !10
  %64 = and i32 %63, 16
  %65 = icmp ne i32 %64, 0
  %66 = xor i1 %65, true
  %67 = zext i1 %66 to i32
  call void @gvrender_polygon(ptr noundef %61, ptr noundef %62, i64 noundef 3, i32 noundef %67)
  br label %68

68:                                               ; preds = %60, %52
  br label %69

69:                                               ; preds = %68, %40
  call void @llvm.lifetime.end.p0(i64 80, ptr %16) #9
  %70 = load { double, double }, ptr %9, align 8
  ret { double, double } %70
}