; Function Attrs: nounwind uwtable
define internal { double, double } @arrow_type_normal(ptr noundef %0, double %1, double %2, double %3, double %4, double %5, double noundef %6, i32 noundef %7) #0 {
  %9 = alloca [5 x %struct.pointf_s], align 16
  call void @llvm.lifetime.start.p0(i64 80, ptr nonnull %9) #12
  %10 = call fastcc { double, double } @arrow_type_normal0(double %1, double %2, double %3, double %4, double noundef %6, i32 noundef %7, ptr noundef %9)
  %11 = and i32 %7, 64
  %.not = icmp eq i32 %11, 0
  br i1 %.not, label %15, label %12

12:                                               ; preds = %8
  %13 = lshr i32 %7, 4
  %.lobit18 = and i32 %13, 1
  %14 = xor i32 %.lobit18, 1
  call void @gvrender_polygon(ptr noundef %0, ptr noundef nonnull %9, i64 noundef 3, i32 noundef %14) #12
  br label %23

15:                                               ; preds = %8
  %16 = and i32 %7, 128
  %.not13 = icmp eq i32 %16, 0
  %17 = lshr i32 %7, 4
  %.lobit = and i32 %17, 1
  %18 = xor i32 %.lobit, 1
  br i1 %.not13, label %21, label %19

19:                                               ; preds = %15
  %20 = getelementptr inbounds nuw i8, ptr %9, i64 32
  call void @gvrender_polygon(ptr noundef %0, ptr noundef nonnull %20, i64 noundef 3, i32 noundef %18) #12
  br label %23

21:                                               ; preds = %15
  %22 = getelementptr inbounds nuw i8, ptr %9, i64 16
  call void @gvrender_polygon(ptr noundef %0, ptr noundef nonnull %22, i64 noundef 3, i32 noundef %18) #12
  br label %23

23:                                               ; preds = %19, %21, %12
  call void @llvm.lifetime.end.p0(i64 80, ptr nonnull %9) #12
  ret { double, double } %10
}